; ModuleID = '13/1275.c'
source_filename = "13/1275.c"
target datalayout = "e-m:e-p270:32:32-p271:32:32-p272:64:64-i64:64-f80:128-n8:16:32:64-S128"
target triple = "x86_64-pc-linux-gnu"

@.str = private unnamed_addr constant [3 x i8] c"%d\00", align 1
@.str.1 = private unnamed_addr constant [4 x i8] c"%d \00", align 1

; Function Attrs: noinline nounwind uwtable
define dso_local i32 @main() #0 {
  %1 = alloca i32, align 4
  %2 = alloca i32, align 4
  %3 = alloca i32, align 4
  %4 = alloca i32, align 4
  %5 = alloca i32, align 4
  %6 = alloca i32, align 4
  %7 = alloca i32, align 4
  %8 = alloca [100000 x i32], align 16
  %9 = alloca [100 x i32], align 16
  store i32 0, i32* %1, align 4
  store i32 0, i32* %5, align 4
  store i32 0, i32* %7, align 4
  store i32 -1, i32* %6, align 4
  %10 = call i32 (i8*, ...) @__isoc99_scanf(i8* getelementptr inbounds ([3 x i8], [3 x i8]* @.str, i64 0, i64 0), i32* %2)
  store i32 0, i32* %3, align 4
  br label %11

11:                                               ; preds = %20, %0
  %12 = load i32, i32* %3, align 4
  %13 = load i32, i32* %2, align 4
  %14 = icmp slt i32 %12, %13
  br i1 %14, label %15, label %23

15:                                               ; preds = %11
  %16 = load i32, i32* %3, align 4
  %17 = sext i32 %16 to i64
  %18 = getelementptr inbounds [100000 x i32], [100000 x i32]* %8, i64 0, i64 %17
  %19 = call i32 (i8*, ...) @__isoc99_scanf(i8* getelementptr inbounds ([3 x i8], [3 x i8]* @.str, i64 0, i64 0), i32* %18)
  br label %20

20:                                               ; preds = %15
  %21 = load i32, i32* %3, align 4
  %22 = add nsw i32 %21, 1
  store i32 %22, i32* %3, align 4
  br label %11

23:                                               ; preds = %11
  store i32 0, i32* %3, align 4
  br label %24

24:                                               ; preds = %54, %23
  %25 = load i32, i32* %3, align 4
  %26 = load i32, i32* %2, align 4
  %27 = icmp slt i32 %25, %26
  br i1 %27, label %28, label %57

28:                                               ; preds = %24
  %29 = load i32, i32* %3, align 4
  %30 = add nsw i32 %29, 1
  store i32 %30, i32* %4, align 4
  br label %31

31:                                               ; preds = %50, %28
  %32 = load i32, i32* %4, align 4
  %33 = load i32, i32* %2, align 4
  %34 = icmp slt i32 %32, %33
  br i1 %34, label %35, label %53

35:                                               ; preds = %31
  %36 = load i32, i32* %3, align 4
  %37 = sext i32 %36 to i64
  %38 = getelementptr inbounds [100000 x i32], [100000 x i32]* %8, i64 0, i64 %37
  %39 = load i32, i32* %38, align 4
  %40 = load i32, i32* %4, align 4
  %41 = sext i32 %40 to i64
  %42 = getelementptr inbounds [100000 x i32], [100000 x i32]* %8, i64 0, i64 %41
  %43 = load i32, i32* %42, align 4
  %44 = icmp eq i32 %39, %43
  br i1 %44, label %45, label %49

45:                                               ; preds = %35
  %46 = load i32, i32* %4, align 4
  %47 = sext i32 %46 to i64
  %48 = getelementptr inbounds [100000 x i32], [100000 x i32]* %8, i64 0, i64 %47
  store i32 10000, i32* %48, align 4
  br label %49

49:                                               ; preds = %45, %35
  br label %50

50:                                               ; preds = %49
  %51 = load i32, i32* %4, align 4
  %52 = add nsw i32 %51, 1
  store i32 %52, i32* %4, align 4
  br label %31

53:                                               ; preds = %31
  br label %54

54:                                               ; preds = %53
  %55 = load i32, i32* %3, align 4
  %56 = add nsw i32 %55, 1
  store i32 %56, i32* %3, align 4
  br label %24

57:                                               ; preds = %24
  store i32 0, i32* %3, align 4
  br label %58

58:                                               ; preds = %72, %57
  %59 = load i32, i32* %3, align 4
  %60 = load i32, i32* %2, align 4
  %61 = icmp slt i32 %59, %60
  br i1 %61, label %62, label %75

62:                                               ; preds = %58
  %63 = load i32, i32* %3, align 4
  %64 = sext i32 %63 to i64
  %65 = getelementptr inbounds [100000 x i32], [100000 x i32]* %8, i64 0, i64 %64
  %66 = load i32, i32* %65, align 4
  %67 = icmp eq i32 %66, 10000
  br i1 %67, label %68, label %71

68:                                               ; preds = %62
  %69 = load i32, i32* %5, align 4
  %70 = add nsw i32 %69, 1
  store i32 %70, i32* %5, align 4
  br label %71

71:                                               ; preds = %68, %62
  br label %72

72:                                               ; preds = %71
  %73 = load i32, i32* %3, align 4
  %74 = add nsw i32 %73, 1
  store i32 %74, i32* %3, align 4
  br label %58

75:                                               ; preds = %58
  store i32 0, i32* %3, align 4
  br label %76

76:                                               ; preds = %100, %75
  %77 = load i32, i32* %3, align 4
  %78 = load i32, i32* %2, align 4
  %79 = icmp slt i32 %77, %78
  br i1 %79, label %80, label %103

80:                                               ; preds = %76
  %81 = load i32, i32* %3, align 4
  %82 = sext i32 %81 to i64
  %83 = getelementptr inbounds [100000 x i32], [100000 x i32]* %8, i64 0, i64 %82
  %84 = load i32, i32* %83, align 4
  %85 = icmp ne i32 %84, 10000
  br i1 %85, label %86, label %98

86:                                               ; preds = %80
  %87 = load i32, i32* %7, align 4
  %88 = add nsw i32 %87, 1
  store i32 %88, i32* %7, align 4
  %89 = load i32, i32* %6, align 4
  %90 = add nsw i32 %89, 1
  store i32 %90, i32* %6, align 4
  %91 = load i32, i32* %3, align 4
  %92 = sext i32 %91 to i64
  %93 = getelementptr inbounds [100000 x i32], [100000 x i32]* %8, i64 0, i64 %92
  %94 = load i32, i32* %93, align 4
  %95 = load i32, i32* %6, align 4
  %96 = sext i32 %95 to i64
  %97 = getelementptr inbounds [100 x i32], [100 x i32]* %9, i64 0, i64 %96
  store i32 %94, i32* %97, align 4
  br label %99

98:                                               ; preds = %80
  br label %100

99:                                               ; preds = %86
  br label %100

100:                                              ; preds = %99, %98
  %101 = load i32, i32* %3, align 4
  %102 = add nsw i32 %101, 1
  store i32 %102, i32* %3, align 4
  br label %76

103:                                              ; preds = %76
  store i32 0, i32* %3, align 4
  br label %104

104:                                              ; preds = %145, %103
  %105 = load i32, i32* %3, align 4
  %106 = load i32, i32* %7, align 4
  %107 = icmp slt i32 %105, %106
  br i1 %107, label %108, label %148

108:                                              ; preds = %104
  %109 = load i32, i32* %6, align 4
  %110 = icmp eq i32 %109, 0
  br i1 %110, label %111, label %117

111:                                              ; preds = %108
  %112 = load i32, i32* %3, align 4
  %113 = sext i32 %112 to i64
  %114 = getelementptr inbounds [100 x i32], [100 x i32]* %9, i64 0, i64 %113
  %115 = load i32, i32* %114, align 4
  %116 = call i32 (i8*, ...) @printf(i8* getelementptr inbounds ([3 x i8], [3 x i8]* @.str, i64 0, i64 0), i32 %115)
  br label %144

117:                                              ; preds = %108
  %118 = load i32, i32* %6, align 4
  %119 = icmp ne i32 %118, 0
  br i1 %119, label %120, label %131

120:                                              ; preds = %117
  %121 = load i32, i32* %3, align 4
  %122 = load i32, i32* %7, align 4
  %123 = sub nsw i32 %122, 1
  %124 = icmp slt i32 %121, %123
  br i1 %124, label %125, label %131

125:                                              ; preds = %120
  %126 = load i32, i32* %3, align 4
  %127 = sext i32 %126 to i64
  %128 = getelementptr inbounds [100 x i32], [100 x i32]* %9, i64 0, i64 %127
  %129 = load i32, i32* %128, align 4
  %130 = call i32 (i8*, ...) @printf(i8* getelementptr inbounds ([4 x i8], [4 x i8]* @.str.1, i64 0, i64 0), i32 %129)
  br label %143

131:                                              ; preds = %120, %117
  %132 = load i32, i32* %3, align 4
  %133 = load i32, i32* %7, align 4
  %134 = sub nsw i32 %133, 1
  %135 = icmp eq i32 %132, %134
  br i1 %135, label %136, label %142

136:                                              ; preds = %131
  %137 = load i32, i32* %3, align 4
  %138 = sext i32 %137 to i64
  %139 = getelementptr inbounds [100 x i32], [100 x i32]* %9, i64 0, i64 %138
  %140 = load i32, i32* %139, align 4
  %141 = call i32 (i8*, ...) @printf(i8* getelementptr inbounds ([3 x i8], [3 x i8]* @.str, i64 0, i64 0), i32 %140)
  br label %142

142:                                              ; preds = %136, %131
  br label %143

143:                                              ; preds = %142, %125
  br label %144

144:                                              ; preds = %143, %111
  br label %145

145:                                              ; preds = %144
  %146 = load i32, i32* %3, align 4
  %147 = add nsw i32 %146, 1
  store i32 %147, i32* %3, align 4
  br label %104

148:                                              ; preds = %104
  ret i32 0
}

declare dso_local i32 @__isoc99_scanf(i8*, ...) #1

declare dso_local i32 @printf(i8*, ...) #1


!llvm.module.flags = !{!0}
!llvm.ident = !{!1}

!0 = !{i32 1, !"wchar_size", i32 4}
!1 = !{!"clang version 10.0.0-4ubuntu1 "}
